target datalayout = "e-m:e-p270:32:32-p271:32:32-p272:64:64-i64:64-i128:128-f80:128-n8:16:32:64-S128"
target triple = "x86_64-pc-linux-gnu"

%class.cmCursesWidget = type <{ ptr, i32, [4 x i8], %"class.std::__cxx11::basic_string", ptr, i32, [4 x i8] }>
%"class.std::__cxx11::basic_string" = type { %"struct.std::__cxx11::basic_string<char>::_Alloc_hider", i64, %union.anon }
%"struct.std::__cxx11::basic_string<char>::_Alloc_hider" = type { ptr }
%union.anon = type { i64, [8 x i8] }

; Function Attrs: mustprogress uwtable
define dso_local void @_ZN18cmCursesBoolWidgetC2Eiiii(ptr noundef nonnull align 8 dereferenceable(60) %0, i32 noundef %1, i32 noundef %2, i32 noundef %3, i32 noundef %4) unnamed_addr #0 align 2 personality ptr @__gxx_personality_v0 {
  %6 = alloca ptr, align 8
  %7 = alloca i32, align 4
  %8 = alloca i32, align 4
  %9 = alloca i32, align 4
  %10 = alloca i32, align 4
  %11 = alloca ptr, align 8
  %12 = alloca i32, align 4
  store ptr %0, ptr %6, align 8
  store i32 %1, ptr %7, align 4
  store i32 %2, ptr %8, align 4
  store i32 %3, ptr %9, align 4
  store i32 %4, ptr %10, align 4
  %13 = load ptr, ptr %6, align 8
  %14 = load i32, ptr %7, align 4
  %15 = load i32, ptr %8, align 4
  %16 = load i32, ptr %9, align 4
  %17 = load i32, ptr %10, align 4
  call void @_ZN14cmCursesWidgetC2Eiiii(ptr noundef nonnull align 8 dereferenceable(60) %13, i32 noundef %14, i32 noundef %15, i32 noundef %16, i32 noundef %17)
  store ptr getelementptr inbounds ({ [9 x ptr] }, ptr @_ZTV18cmCursesBoolWidget, i32 0, i32 0, i32 2), ptr %13, align 8
  %18 = getelementptr inbounds %class.cmCursesWidget, ptr %13, i32 0, i32 1
  store i32 0, ptr %18, align 8
  %19 = invoke noundef zeroext i1 @_ZN13cmCursesColor9HasColorsEv()
          to label %20 unwind label %30

20:                                               ; preds = %5
  br i1 %19, label %34, label %21

21:                                               ; preds = %20
  %22 = getelementptr inbounds %class.cmCursesWidget, ptr %13, i32 0, i32 4
  %23 = load ptr, ptr %22, align 8
  %24 = invoke i32 @set_field_fore(ptr noundef %23, i32 noundef 0)
          to label %25 unwind label %30

25:                                               ; preds = %21
  %26 = getelementptr inbounds %class.cmCursesWidget, ptr %13, i32 0, i32 4
  %27 = load ptr, ptr %26, align 8
  %28 = invoke i32 @set_field_back(ptr noundef %27, i32 noundef 65536)
          to label %29 unwind label %30

29:                                               ; preds = %25
  br label %34

30:                                               ; preds = %38, %34, %25, %21, %5
  %31 = landingpad { ptr, i32 }
          cleanup
  %32 = extractvalue { ptr, i32 } %31, 0
  store ptr %32, ptr %11, align 8
  %33 = extractvalue { ptr, i32 } %31, 1
  store i32 %33, ptr %12, align 4
  call void @_ZN14cmCursesWidgetD2Ev(ptr noundef nonnull align 8 dereferenceable(60) %13) #7
  br label %40

34:                                               ; preds = %29, %20
  %35 = getelementptr inbounds %class.cmCursesWidget, ptr %13, i32 0, i32 4
  %36 = load ptr, ptr %35, align 8
  %37 = invoke i32 @field_opts_off(ptr noundef %36, i32 noundef 512)
          to label %38 unwind label %30

38:                                               ; preds = %34
  invoke void @_ZN18cmCursesBoolWidget14SetValueAsBoolEb(ptr noundef nonnull align 8 dereferenceable(60) %13, i1 noundef zeroext false)
          to label %39 unwind label %30

39:                                               ; preds = %38
  ret void

40:                                               ; preds = %30
  %41 = load ptr, ptr %11, align 8
  %42 = load i32, ptr %12, align 4
  %43 = insertvalue { ptr, i32 } poison, ptr %41, 0
  %44 = insertvalue { ptr, i32 } %43, i32 %42, 1
  resume { ptr, i32 } %44
}