; Function Attrs: mustprogress uwtable
define dso_local void @_ZN18cmCursesBoolWidgetC2Eiiii(ptr noundef nonnull align 8 dereferenceable(60) %0, i32 noundef %1, i32 noundef %2, i32 noundef %3, i32 noundef %4) unnamed_addr #0 align 2 personality ptr @__gxx_personality_v0 {
  tail call void @_ZN14cmCursesWidgetC2Eiiii(ptr noundef nonnull align 8 dereferenceable(60) %0, i32 noundef %1, i32 noundef %2, i32 noundef %3, i32 noundef %4)
  store ptr getelementptr inbounds ({ [9 x ptr] }, ptr @_ZTV18cmCursesBoolWidget, i64 0, i32 0, i64 2), ptr %0, align 8
  %6 = getelementptr inbounds i8, ptr %0, i64 8
  store i32 0, ptr %6, align 8
  %7 = invoke noundef zeroext i1 @_ZN13cmCursesColor9HasColorsEv()
          to label %8 unwind label %16

8:                                                ; preds = %5
  br i1 %7, label %18, label %9

9:                                                ; preds = %8
  %10 = getelementptr inbounds i8, ptr %0, i64 48
  %11 = load ptr, ptr %10, align 8
  %12 = invoke i32 @set_field_fore(ptr noundef %11, i32 noundef 0)
          to label %13 unwind label %16

13:                                               ; preds = %9
  %14 = load ptr, ptr %10, align 8
  %15 = invoke i32 @set_field_back(ptr noundef %14, i32 noundef 65536)
          to label %18 unwind label %16

16:                                               ; preds = %22, %18, %13, %9, %5
  %17 = landingpad { ptr, i32 }
          cleanup
  tail call void @_ZN14cmCursesWidgetD2Ev(ptr noundef nonnull align 8 dereferenceable(60) %0) #6
  resume { ptr, i32 } %17

18:                                               ; preds = %13, %8
  %19 = getelementptr inbounds i8, ptr %0, i64 48
  %20 = load ptr, ptr %19, align 8
  %21 = invoke i32 @field_opts_off(ptr noundef %20, i32 noundef 512)
          to label %22 unwind label %16

22:                                               ; preds = %18
  invoke void @_ZN18cmCursesBoolWidget14SetValueAsBoolEb(ptr noundef nonnull align 8 dereferenceable(60) %0, i1 noundef zeroext false)
          to label %23 unwind label %16

23:                                               ; preds = %22
  ret void
}